target datalayout = "e-m:e-p270:32:32-p271:32:32-p272:64:64-i64:64-i128:128-f80:128-n8:16:32:64-S128"
target triple = "x86_64-pc-linux-gnu"

%struct._zend_refcounted_h = type { i32, %union.anon }
%union.anon = type { i32 }
%struct._zval_struct = type { %union._zend_value, %union.anon.3, %union.anon.6 }
%union._zend_value = type { i64 }
%union.anon.3 = type { i32 }
%union.anon.6 = type { i32 }
%struct._php_stream_ops = type { ptr, ptr, ptr, ptr, ptr, ptr, ptr, ptr, ptr }
%struct._zend_resource = type { %struct._zend_refcounted_h, i64, i32, ptr }
%struct._php_stream = type { ptr, ptr, %struct._php_stream_filter_chain, %struct._php_stream_filter_chain, ptr, ptr, %struct._zval_struct, i16, [16 x i8], i32, ptr, ptr, ptr, ptr, i64, ptr, i64, i64, i64, i64, ptr }
%struct._php_stream_filter_chain = type { ptr, ptr, ptr }
%struct._php_stream_context = type { ptr, %struct._zval_struct, ptr }
%struct._php_stream_notifier = type { ptr, ptr, %struct._zval_struct, i32, i64, i64 }

@php_stream_userspace_ops = external constant %struct._php_stream_ops, align 8

; Function Attrs: nounwind uwtable
define void @php_stream_notification_notify(ptr noundef %0, i32 noundef %1, i32 noundef %2, ptr noundef %3, i32 noundef %4, i64 noundef %5, i64 noundef %6, ptr noundef %7) #0 {
  %9 = alloca ptr, align 8
  %10 = alloca i32, align 4
  %11 = alloca i32, align 4
  %12 = alloca ptr, align 8
  %13 = alloca i32, align 4
  %14 = alloca i64, align 8
  %15 = alloca i64, align 8
  %16 = alloca ptr, align 8
  store ptr %0, ptr %9, align 8
  store i32 %1, ptr %10, align 4
  store i32 %2, ptr %11, align 4
  store ptr %3, ptr %12, align 8
  store i32 %4, ptr %13, align 4
  store i64 %5, ptr %14, align 8
  store i64 %6, ptr %15, align 8
  store ptr %7, ptr %16, align 8
  %17 = load ptr, ptr %9, align 8
  %18 = icmp ne ptr %17, null
  br i1 %18, label %19, label %38

19:                                               ; preds = %8
  %20 = load ptr, ptr %9, align 8
  %21 = getelementptr inbounds %struct._php_stream_context, ptr %20, i32 0, i32 0
  %22 = load ptr, ptr %21, align 8
  %23 = icmp ne ptr %22, null
  br i1 %23, label %24, label %38

24:                                               ; preds = %19
  %25 = load ptr, ptr %9, align 8
  %26 = getelementptr inbounds %struct._php_stream_context, ptr %25, i32 0, i32 0
  %27 = load ptr, ptr %26, align 8
  %28 = getelementptr inbounds %struct._php_stream_notifier, ptr %27, i32 0, i32 0
  %29 = load ptr, ptr %28, align 8
  %30 = load ptr, ptr %9, align 8
  %31 = load i32, ptr %10, align 4
  %32 = load i32, ptr %11, align 4
  %33 = load ptr, ptr %12, align 8
  %34 = load i32, ptr %13, align 4
  %35 = load i64, ptr %14, align 8
  %36 = load i64, ptr %15, align 8
  %37 = load ptr, ptr %16, align 8
  call void %29(ptr noundef %30, i32 noundef %31, i32 noundef %32, ptr noundef %33, i32 noundef %34, i64 noundef %35, i64 noundef %36, ptr noundef %37)
  br label %38

38:                                               ; preds = %24, %19, %8
  ret void
}

; Function Attrs: nounwind uwtable
define internal i64 @_php_stream_write_buffer(ptr noundef %0, ptr noundef %1, i64 noundef %2) #0 {
  %4 = alloca ptr, align 8
  %5 = alloca ptr, align 8
  %6 = alloca i64, align 8
  %7 = alloca i64, align 8
  %8 = alloca i64, align 8
  %9 = alloca i8, align 1
  %10 = alloca i64, align 8
  %11 = alloca i64, align 8
  store ptr %0, ptr %4, align 8
  store ptr %1, ptr %5, align 8
  store i64 %2, ptr %6, align 8
  store i64 0, ptr %7, align 8
  %12 = load ptr, ptr %4, align 8
  %13 = getelementptr inbounds %struct._php_stream, ptr %12, i32 0, i32 0
  %14 = load ptr, ptr %13, align 8
  %15 = getelementptr inbounds %struct._php_stream_ops, ptr %14, i32 0, i32 5
  %16 = load ptr, ptr %15, align 8
  %17 = icmp ne ptr %16, null
  br i1 %17, label %18, label %49

18:                                               ; preds = %3
  %19 = load ptr, ptr %4, align 8
  %20 = getelementptr inbounds %struct._php_stream, ptr %19, i32 0, i32 9
  %21 = load i32, ptr %20, align 4
  %22 = and i32 %21, 1
  %23 = icmp eq i32 %22, 0
  br i1 %23, label %24, label %49

24:                                               ; preds = %18
  %25 = load ptr, ptr %4, align 8
  %26 = getelementptr inbounds %struct._php_stream, ptr %25, i32 0, i32 17
  %27 = load i64, ptr %26, align 8
  %28 = load ptr, ptr %4, align 8
  %29 = getelementptr inbounds %struct._php_stream, ptr %28, i32 0, i32 18
  %30 = load i64, ptr %29, align 8
  %31 = icmp ne i64 %27, %30
  br i1 %31, label %32, label %49

32:                                               ; preds = %24
  %33 = load ptr, ptr %4, align 8
  %34 = getelementptr inbounds %struct._php_stream, ptr %33, i32 0, i32 18
  store i64 0, ptr %34, align 8
  %35 = load ptr, ptr %4, align 8
  %36 = getelementptr inbounds %struct._php_stream, ptr %35, i32 0, i32 17
  store i64 0, ptr %36, align 8
  %37 = load ptr, ptr %4, align 8
  %38 = getelementptr inbounds %struct._php_stream, ptr %37, i32 0, i32 0
  %39 = load ptr, ptr %38, align 8
  %40 = getelementptr inbounds %struct._php_stream_ops, ptr %39, i32 0, i32 5
  %41 = load ptr, ptr %40, align 8
  %42 = load ptr, ptr %4, align 8
  %43 = load ptr, ptr %4, align 8
  %44 = getelementptr inbounds %struct._php_stream, ptr %43, i32 0, i32 14
  %45 = load i64, ptr %44, align 8
  %46 = load ptr, ptr %4, align 8
  %47 = getelementptr inbounds %struct._php_stream, ptr %46, i32 0, i32 14
  %48 = call i32 %41(ptr noundef %42, i64 noundef %45, i32 noundef 0, ptr noundef %47)
  br label %49

49:                                               ; preds = %32, %24, %18, %3
  %50 = load ptr, ptr %4, align 8
  %51 = getelementptr inbounds %struct._php_stream, ptr %50, i32 0, i32 7
  %52 = load i16, ptr %51, align 8
  %53 = lshr i16 %52, 3
  %54 = and i16 %53, 1
  %55 = icmp ne i16 %54, 0
  %56 = zext i1 %55 to i8
  store i8 %56, ptr %9, align 1
  %57 = load i64, ptr %6, align 8
  store i64 %57, ptr %10, align 8
  %58 = load ptr, ptr %4, align 8
  %59 = getelementptr inbounds %struct._php_stream, ptr %58, i32 0, i32 0
  %60 = load ptr, ptr %59, align 8
  %61 = icmp eq ptr %60, @php_stream_userspace_ops
  br i1 %61, label %62, label %66

62:                                               ; preds = %49
  %63 = load ptr, ptr %4, align 8
  %64 = getelementptr inbounds %struct._php_stream, ptr %63, i32 0, i32 19
  %65 = load i64, ptr %64, align 8
  store i64 %65, ptr %10, align 8
  br label %66

66:                                               ; preds = %62, %49
  br label %67

67:                                               ; preds = %97, %66
  %68 = load i64, ptr %6, align 8
  %69 = icmp ugt i64 %68, 0
  br i1 %69, label %70, label %112

70:                                               ; preds = %67
  %71 = load ptr, ptr %4, align 8
  %72 = getelementptr inbounds %struct._php_stream, ptr %71, i32 0, i32 0
  %73 = load ptr, ptr %72, align 8
  %74 = getelementptr inbounds %struct._php_stream_ops, ptr %73, i32 0, i32 0
  %75 = load ptr, ptr %74, align 8
  %76 = load ptr, ptr %4, align 8
  %77 = load ptr, ptr %5, align 8
  %78 = load i64, ptr %10, align 8
  %79 = load i64, ptr %6, align 8
  %80 = icmp ult i64 %78, %79
  br i1 %80, label %81, label %83

81:                                               ; preds = %70
  %82 = load i64, ptr %10, align 8
  br label %85

83:                                               ; preds = %70
  %84 = load i64, ptr %6, align 8
  br label %85

85:                                               ; preds = %83, %81
  %86 = phi i64 [ %82, %81 ], [ %84, %83 ]
  %87 = call i64 %75(ptr noundef %76, ptr noundef %77, i64 noundef %86)
  store i64 %87, ptr %11, align 8
  %88 = load i64, ptr %11, align 8
  %89 = icmp sle i64 %88, 0
  br i1 %89, label %90, label %97

90:                                               ; preds = %85
  %91 = load i64, ptr %7, align 8
  %92 = icmp eq i64 %91, 0
  br i1 %92, label %93, label %95

93:                                               ; preds = %90
  %94 = load i64, ptr %11, align 8
  store i64 %94, ptr %8, align 8
  br label %114

95:                                               ; preds = %90
  %96 = load i64, ptr %7, align 8
  store i64 %96, ptr %8, align 8
  br label %114

97:                                               ; preds = %85
  %98 = load i64, ptr %11, align 8
  %99 = load ptr, ptr %5, align 8
  %100 = getelementptr inbounds i8, ptr %99, i64 %98
  store ptr %100, ptr %5, align 8
  %101 = load i64, ptr %11, align 8
  %102 = load i64, ptr %6, align 8
  %103 = sub i64 %102, %101
  store i64 %103, ptr %6, align 8
  %104 = load i64, ptr %11, align 8
  %105 = load i64, ptr %7, align 8
  %106 = add nsw i64 %105, %104
  store i64 %106, ptr %7, align 8
  %107 = load i64, ptr %11, align 8
  %108 = load ptr, ptr %4, align 8
  %109 = getelementptr inbounds %struct._php_stream, ptr %108, i32 0, i32 14
  %110 = load i64, ptr %109, align 8
  %111 = add nsw i64 %110, %107
  store i64 %111, ptr %109, align 8
  br label %67

112:                                              ; preds = %67
  %113 = load i64, ptr %7, align 8
  store i64 %113, ptr %8, align 8
  br label %114

114:                                              ; preds = %112, %95, %93
  %115 = load i8, ptr %9, align 1
  %116 = trunc i8 %115 to i1
  %117 = zext i1 %116 to i32
  %118 = load ptr, ptr %4, align 8
  %119 = getelementptr inbounds %struct._php_stream, ptr %118, i32 0, i32 7
  %120 = load i16, ptr %119, align 8
  %121 = lshr i16 %120, 3
  %122 = and i16 %121, 1
  %123 = zext i16 %122 to i32
  %124 = icmp ne i32 %117, %123
  br i1 %124, label %125, label %208

125:                                              ; preds = %114
  br label %126

126:                                              ; preds = %125
  %127 = load ptr, ptr %4, align 8
  %128 = getelementptr inbounds %struct._php_stream, ptr %127, i32 0, i32 13
  %129 = load ptr, ptr %128, align 8
  %130 = icmp ne ptr %129, null
  br i1 %130, label %131, label %137

131:                                              ; preds = %126
  %132 = load ptr, ptr %4, align 8
  %133 = getelementptr inbounds %struct._php_stream, ptr %132, i32 0, i32 13
  %134 = load ptr, ptr %133, align 8
  %135 = getelementptr inbounds %struct._zend_resource, ptr %134, i32 0, i32 3
  %136 = load ptr, ptr %135, align 8
  br label %138

137:                                              ; preds = %126
  br label %138

138:                                              ; preds = %137, %131
  %139 = phi ptr [ %136, %131 ], [ null, %137 ]
  %140 = icmp ne ptr %139, null
  br i1 %140, label %141, label %206

141:                                              ; preds = %138
  %142 = load ptr, ptr %4, align 8
  %143 = getelementptr inbounds %struct._php_stream, ptr %142, i32 0, i32 13
  %144 = load ptr, ptr %143, align 8
  %145 = icmp ne ptr %144, null
  br i1 %145, label %146, label %152

146:                                              ; preds = %141
  %147 = load ptr, ptr %4, align 8
  %148 = getelementptr inbounds %struct._php_stream, ptr %147, i32 0, i32 13
  %149 = load ptr, ptr %148, align 8
  %150 = getelementptr inbounds %struct._zend_resource, ptr %149, i32 0, i32 3
  %151 = load ptr, ptr %150, align 8
  br label %153

152:                                              ; preds = %141
  br label %153

153:                                              ; preds = %152, %146
  %154 = phi ptr [ %151, %146 ], [ null, %152 ]
  %155 = getelementptr inbounds %struct._php_stream_context, ptr %154, i32 0, i32 0
  %156 = load ptr, ptr %155, align 8
  %157 = icmp ne ptr %156, null
  br i1 %157, label %158, label %206

158:                                              ; preds = %153
  %159 = load ptr, ptr %4, align 8
  %160 = getelementptr inbounds %struct._php_stream, ptr %159, i32 0, i32 13
  %161 = load ptr, ptr %160, align 8
  %162 = icmp ne ptr %161, null
  br i1 %162, label %163, label %169

163:                                              ; preds = %158
  %164 = load ptr, ptr %4, align 8
  %165 = getelementptr inbounds %struct._php_stream, ptr %164, i32 0, i32 13
  %166 = load ptr, ptr %165, align 8
  %167 = getelementptr inbounds %struct._zend_resource, ptr %166, i32 0, i32 3
  %168 = load ptr, ptr %167, align 8
  br label %170

169:                                              ; preds = %158
  br label %170

170:                                              ; preds = %169, %163
  %171 = phi ptr [ %168, %163 ], [ null, %169 ]
  %172 = load ptr, ptr %4, align 8
  %173 = getelementptr inbounds %struct._php_stream, ptr %172, i32 0, i32 13
  %174 = load ptr, ptr %173, align 8
  %175 = icmp ne ptr %174, null
  br i1 %175, label %176, label %182

176:                                              ; preds = %170
  %177 = load ptr, ptr %4, align 8
  %178 = getelementptr inbounds %struct._php_stream, ptr %177, i32 0, i32 13
  %179 = load ptr, ptr %178, align 8
  %180 = getelementptr inbounds %struct._zend_resource, ptr %179, i32 0, i32 3
  %181 = load ptr, ptr %180, align 8
  br label %183

182:                                              ; preds = %170
  br label %183

183:                                              ; preds = %182, %176
  %184 = phi ptr [ %181, %176 ], [ null, %182 ]
  %185 = getelementptr inbounds %struct._php_stream_context, ptr %184, i32 0, i32 0
  %186 = load ptr, ptr %185, align 8
  %187 = getelementptr inbounds %struct._php_stream_notifier, ptr %186, i32 0, i32 4
  %188 = load i64, ptr %187, align 8
  %189 = load ptr, ptr %4, align 8
  %190 = getelementptr inbounds %struct._php_stream, ptr %189, i32 0, i32 13
  %191 = load ptr, ptr %190, align 8
  %192 = icmp ne ptr %191, null
  br i1 %192, label %193, label %199

193:                                              ; preds = %183
  %194 = load ptr, ptr %4, align 8
  %195 = getelementptr inbounds %struct._php_stream, ptr %194, i32 0, i32 13
  %196 = load ptr, ptr %195, align 8
  %197 = getelementptr inbounds %struct._zend_resource, ptr %196, i32 0, i32 3
  %198 = load ptr, ptr %197, align 8
  br label %200

199:                                              ; preds = %183
  br label %200

200:                                              ; preds = %199, %193
  %201 = phi ptr [ %198, %193 ], [ null, %199 ]
  %202 = getelementptr inbounds %struct._php_stream_context, ptr %201, i32 0, i32 0
  %203 = load ptr, ptr %202, align 8
  %204 = getelementptr inbounds %struct._php_stream_notifier, ptr %203, i32 0, i32 5
  %205 = load i64, ptr %204, align 8
  call void @php_stream_notification_notify(ptr noundef %171, i32 noundef 8, i32 noundef 0, ptr noundef null, i32 noundef 0, i64 noundef %188, i64 noundef %205, ptr noundef null)
  br label %206

206:                                              ; preds = %200, %153, %138
  br label %207

207:                                              ; preds = %206
  br label %208

208:                                              ; preds = %207, %114
  %209 = load i64, ptr %8, align 8
  ret i64 %209
}