; Function Attrs: nounwind uwtable
define internal fastcc i64 @_php_stream_write_buffer(ptr noundef %0, ptr noundef %1, i64 noundef %2) unnamed_addr #2 {
  %4 = load ptr, ptr %0, align 8
  %5 = getelementptr inbounds i8, ptr %4, i64 40
  %6 = load ptr, ptr %5, align 8
  %.not = icmp eq ptr %6, null
  br i1 %.not, label %thread-pre-split, label %7

7:                                                ; preds = %3
  %8 = getelementptr inbounds i8, ptr %0, i64 116
  %9 = load i32, ptr %8, align 4
  %10 = and i32 %9, 1
  %11 = icmp eq i32 %10, 0
  br i1 %11, label %12, label %thread-pre-split

12:                                               ; preds = %7
  %13 = getelementptr inbounds i8, ptr %0, i64 176
  %14 = load i64, ptr %13, align 8
  %15 = getelementptr inbounds i8, ptr %0, i64 184
  %16 = load i64, ptr %15, align 8
  %.not53 = icmp eq i64 %14, %16
  br i1 %.not53, label %thread-pre-split, label %17

17:                                               ; preds = %12
  tail call void @llvm.memset.p0.i64(ptr noundef nonnull align 8 dereferenceable(16) %13, i8 0, i64 16, i1 false)
  %18 = load ptr, ptr %5, align 8
  %19 = getelementptr inbounds i8, ptr %0, i64 152
  %20 = load i64, ptr %19, align 8
  %21 = tail call i32 %18(ptr noundef nonnull %0, i64 noundef %20, i32 noundef 0, ptr noundef nonnull %19) #27
  %.pr.pre = load ptr, ptr %0, align 8
  br label %thread-pre-split

thread-pre-split:                                 ; preds = %17, %12, %7, %3
  %22 = phi ptr [ %4, %3 ], [ %4, %7 ], [ %4, %12 ], [ %.pr.pre, %17 ]
  %23 = getelementptr inbounds i8, ptr %0, i64 96
  %24 = load i16, ptr %23, align 8
  %25 = icmp eq ptr %22, @php_stream_userspace_ops
  br i1 %25, label %26, label %29

26:                                               ; preds = %thread-pre-split
  %27 = getelementptr inbounds i8, ptr %0, i64 192
  %28 = load i64, ptr %27, align 8
  br label %29

29:                                               ; preds = %26, %thread-pre-split
  %.047 = phi i64 [ %28, %26 ], [ %2, %thread-pre-split ]
  %.not5460 = icmp eq i64 %2, 0
  br i1 %.not5460, label %.loopexit, label %.lr.ph

.lr.ph:                                           ; preds = %29
  %30 = getelementptr inbounds i8, ptr %0, i64 152
  br label %31

31:                                               ; preds = %.lr.ph, %39
  %.063 = phi ptr [ %1, %.lr.ph ], [ %40, %39 ]
  %.04862 = phi i64 [ %2, %.lr.ph ], [ %41, %39 ]
  %.05061 = phi i64 [ 0, %.lr.ph ], [ %42, %39 ]
  %32 = load ptr, ptr %0, align 8
  %33 = load ptr, ptr %32, align 8
  %34 = tail call i64 @llvm.umin.i64(i64 %.047, i64 %.04862)
  %35 = tail call i64 %33(ptr noundef nonnull %0, ptr noundef %.063, i64 noundef %34) #27
  %36 = icmp slt i64 %35, 1
  br i1 %36, label %37, label %39

37:                                               ; preds = %31
  %38 = icmp eq i64 %.05061, 0
  %..050 = select i1 %38, i64 %35, i64 %.05061
  br label %.loopexit

39:                                               ; preds = %31
  %40 = getelementptr inbounds i8, ptr %.063, i64 %35
  %41 = sub i64 %.04862, %35
  %42 = add nuw nsw i64 %35, %.05061
  %43 = load i64, ptr %30, align 8
  %44 = add nsw i64 %43, %35
  store i64 %44, ptr %30, align 8
  %.not54 = icmp eq i64 %41, 0
  br i1 %.not54, label %.loopexit, label %31

.loopexit:                                        ; preds = %39, %29, %37
  %.049 = phi i64 [ %..050, %37 ], [ 0, %29 ], [ %42, %39 ]
  %45 = load i16, ptr %23, align 8
  %46 = xor i16 %45, %24
  %47 = and i16 %46, 8
  %.not55 = icmp eq i16 %47, 0
  br i1 %.not55, label %.critedge, label %48

48:                                               ; preds = %.loopexit
  %49 = getelementptr inbounds i8, ptr %0, i64 144
  %50 = load ptr, ptr %49, align 8
  %.not56 = icmp eq ptr %50, null
  br i1 %.not56, label %.critedge, label %51

51:                                               ; preds = %48
  %52 = getelementptr inbounds i8, ptr %50, i64 24
  %53 = load ptr, ptr %52, align 8
  %54 = icmp eq ptr %53, null
  br i1 %54, label %.critedge, label %55

55:                                               ; preds = %51
  %56 = load ptr, ptr %53, align 8
  %.not58 = icmp eq ptr %56, null
  br i1 %.not58, label %.critedge, label %php_stream_notification_notify.exit

php_stream_notification_notify.exit:              ; preds = %55
  %57 = getelementptr inbounds i8, ptr %56, i64 40
  %58 = load i64, ptr %57, align 8
  %59 = getelementptr inbounds i8, ptr %56, i64 48
  %60 = load i64, ptr %59, align 8
  %61 = load ptr, ptr %56, align 8
  tail call void %61(ptr noundef nonnull %53, i32 noundef 8, i32 noundef 0, ptr noundef null, i32 noundef 0, i64 noundef %58, i64 noundef %60, ptr noundef null) #27
  br label %.critedge

.critedge:                                        ; preds = %48, %php_stream_notification_notify.exit, %55, %51, %.loopexit
  ret i64 %.049
}